; Function Attrs: nounwind uwtable
define void @ERR_add_error_txt(ptr noundef %0, ptr noundef %1) local_unnamed_addr #0 {
  %3 = alloca ptr, align 8
  %4 = alloca i32, align 4
  %5 = alloca ptr, align 8
  %6 = alloca ptr, align 8
  %7 = alloca i32, align 4
  call void @llvm.lifetime.start.p0(i64 8, ptr nonnull %3) #5
  store ptr null, ptr %3, align 8, !tbaa !9
  call void @llvm.lifetime.start.p0(i64 4, ptr nonnull %4) #5
  call void @llvm.lifetime.start.p0(i64 8, ptr nonnull %5) #5
  store ptr null, ptr %5, align 8, !tbaa !9
  call void @llvm.lifetime.start.p0(i64 8, ptr nonnull %6) #5
  store ptr null, ptr %6, align 8, !tbaa !9
  call void @llvm.lifetime.start.p0(i64 4, ptr nonnull %7) #5
  %8 = tail call i64 @ERR_peek_last_error() #5
  %9 = icmp eq ptr %0, null
  %spec.store.select = select i1 %9, ptr @.str, ptr %0
  %10 = icmp eq i64 %8, 0
  br i1 %10, label %11, label %12

11:                                               ; preds = %2
  tail call void @ERR_new() #5
  tail call void @ERR_set_debug(ptr noundef nonnull @.str, i32 noundef 0, ptr noundef null) #5
  tail call void (i32, i32, ptr, ...) @ERR_set_error(i32 noundef 1, i32 noundef 0, ptr noundef null) #5
  br label %12

12:                                               ; preds = %11, %2
  %13 = and i64 %8, 2147483648
  %.not.i = icmp eq i64 %13, 0
  %14 = trunc i64 %8 to i32
  %15 = lshr i32 %14, 23
  %.0.i = select i1 %.not.i, i32 %15, i32 2
  br label %16

16:                                               ; preds = %76, %12
  %.069 = phi ptr [ %1, %12 ], [ %.170.ph, %76 ]
  %17 = call i64 @ERR_peek_last_error_all(ptr noundef nonnull %3, ptr noundef nonnull %4, ptr noundef nonnull %5, ptr noundef nonnull %6, ptr noundef nonnull %7) #5
  %18 = load i32, ptr %7, align 4, !tbaa !7
  %19 = and i32 %18, 2
  %20 = icmp eq i32 %19, 0
  br i1 %20, label %21, label %._crit_edge

._crit_edge:                                      ; preds = %16
  %.pre = load ptr, ptr %6, align 8, !tbaa !9
  br label %22

21:                                               ; preds = %16
  store ptr @.str, ptr %6, align 8, !tbaa !9
  br label %22

22:                                               ; preds = %._crit_edge, %21
  %23 = phi ptr [ @.str, %21 ], [ %.pre, %._crit_edge ]
  %.062 = phi ptr [ @.str, %21 ], [ %spec.store.select, %._crit_edge ]
  %24 = call i64 @strlen(ptr noundef nonnull dereferenceable(1) %23) #6
  %25 = icmp ugt i64 %24, 3995
  br i1 %25, label %32, label %26

26:                                               ; preds = %22
  %27 = call i64 @strlen(ptr noundef nonnull dereferenceable(1) %spec.store.select) #6
  %28 = sub nuw nsw i64 3996, %24
  %.not = icmp ult i64 %27, %28
  br i1 %.not, label %29, label %32

29:                                               ; preds = %26
  %30 = xor i64 %27, -1
  %31 = add nsw i64 %28, %30
  br label %32

32:                                               ; preds = %22, %26, %29
  %.072 = phi i64 [ %31, %29 ], [ 0, %26 ], [ 0, %22 ]
  %33 = load i8, ptr %spec.store.select, align 1, !tbaa !12
  %34 = icmp eq i8 %33, 0
  br i1 %34, label %37, label %.preheader

.preheader:                                       ; preds = %32
  %35 = ptrtoint ptr %.069 to i64
  %36 = load i8, ptr %.069, align 1, !tbaa !12
  %.not80114 = icmp eq i8 %36, 0
  br i1 %.not80114, label %.thread.thread, label %.lr.ph

37:                                               ; preds = %32
  %38 = call i64 @strlen(ptr noundef nonnull dereferenceable(1) %.069) #6
  %.not84 = icmp ugt i64 %38, %.072
  %39 = getelementptr inbounds nuw i8, ptr %.069, i64 %38
  %40 = getelementptr inbounds nuw i8, ptr %.069, i64 %.072
  br i1 %.not84, label %.thread98, label %.thread.thread

.lr.ph:                                           ; preds = %.preheader, %51
  %.1116 = phi i32 [ %.2, %51 ], [ 0, %.preheader ]
  %.265115 = phi ptr [ %.3, %51 ], [ %.069, %.preheader ]
  %41 = call ptr @strstr(ptr noundef nonnull dereferenceable(1) %.265115, ptr noundef nonnull dereferenceable(1) %spec.store.select) #6
  %.not83 = icmp eq ptr %41, null
  br i1 %.not83, label %48, label %42

42:                                               ; preds = %.lr.ph
  %43 = call i64 @strlen(ptr noundef nonnull dereferenceable(1) %spec.store.select) #6
  %44 = getelementptr inbounds nuw i8, ptr %41, i64 %43
  %45 = load i8, ptr %44, align 1, !tbaa !12
  %46 = icmp eq i8 %45, 0
  %47 = zext i1 %46 to i32
  br label %51

48:                                               ; preds = %.lr.ph
  %49 = call i64 @strlen(ptr noundef nonnull dereferenceable(1) %.265115) #6
  %50 = getelementptr inbounds nuw i8, ptr %.265115, i64 %49
  %.pre121 = load i8, ptr %50, align 1, !tbaa !12
  br label %51

51:                                               ; preds = %48, %42
  %52 = phi i8 [ %45, %42 ], [ %.pre121, %48 ]
  %.3 = phi ptr [ %44, %42 ], [ %50, %48 ]
  %.2 = phi i32 [ %47, %42 ], [ %.1116, %48 ]
  %.not80 = icmp eq i8 %52, 0
  %53 = ptrtoint ptr %.3 to i64
  %54 = sub i64 %53, %35
  %.not81 = icmp ugt i64 %54, %.072
  %or.cond = select i1 %.not80, i1 true, i1 %.not81
  br i1 %or.cond, label %.critedge, label %.lr.ph, !llvm.loop !13

.critedge:                                        ; preds = %51
  br i1 %.not81, label %.thread98, label %.thread

.thread98:                                        ; preds = %.critedge, %37
  %.167103 = phi ptr [ %40, %37 ], [ %.265115, %.critedge ]
  %.not87 = icmp eq ptr %.167103, %.069
  br i1 %.not87, label %62, label %55

55:                                               ; preds = %.thread98
  %56 = ptrtoint ptr %.167103 to i64
  %57 = ptrtoint ptr %.069 to i64
  %58 = sub i64 %56, %57
  %59 = call noalias ptr @CRYPTO_strndup(ptr noundef %.069, i64 noundef %58, ptr noundef nonnull @.str.4, i32 noundef 123) #5
  %60 = icmp eq ptr %59, null
  br i1 %60, label %78, label %61

61:                                               ; preds = %55
  call void (i32, ...) @ERR_add_error_data(i32 noundef 2, ptr noundef nonnull %spec.store.select, ptr noundef nonnull %59) #5
  call void @CRYPTO_free(ptr noundef nonnull %59, ptr noundef nonnull @.str.4, i32 noundef 127) #5
  br label %62

62:                                               ; preds = %61, %.thread98
  %63 = load ptr, ptr %5, align 8, !tbaa !9
  %64 = load ptr, ptr %3, align 8, !tbaa !9
  %65 = load i32, ptr %4, align 4, !tbaa !7
  call void @ERR_new() #5
  call void @ERR_set_debug(ptr noundef %64, i32 noundef %65, ptr noundef %63) #5
  call void (i32, i32, ptr, ...) @ERR_set_error(i32 noundef range(i32 0, 256) %.0.i, i32 noundef %14, ptr noundef null) #5
  br label %76

.thread:                                          ; preds = %.critedge
  %66 = icmp eq i32 %.2, 0
  br i1 %66, label %.thread.thread, label %67

67:                                               ; preds = %.thread
  %68 = call i64 @strlen(ptr noundef nonnull dereferenceable(1) %spec.store.select) #6
  %69 = sub i64 0, %68
  %70 = getelementptr inbounds i8, ptr %.3, i64 %69
  %71 = ptrtoint ptr %70 to i64
  %72 = sub i64 %71, %35
  %73 = call noalias ptr @CRYPTO_strndup(ptr noundef nonnull %.069, i64 noundef %72, ptr noundef nonnull @.str.4, i32 noundef 133) #5
  %74 = icmp eq ptr %73, null
  br i1 %74, label %78, label %75

75:                                               ; preds = %67
  call void (i32, ...) @ERR_add_error_data(i32 noundef 2, ptr noundef nonnull %.062, ptr noundef nonnull %73) #5
  call void @CRYPTO_free(ptr noundef nonnull %73, ptr noundef nonnull @.str.4, i32 noundef 138) #5
  br label %76

.thread.thread:                                   ; preds = %.preheader, %37, %.thread
  %.16496112 = phi ptr [ %.3, %.thread ], [ %39, %37 ], [ %.069, %.preheader ]
  call void (i32, ...) @ERR_add_error_data(i32 noundef 2, ptr noundef nonnull %.062, ptr noundef %.069) #5
  br label %76

76:                                               ; preds = %75, %.thread.thread, %62
  %.170.ph = phi ptr [ %.3, %75 ], [ %.16496112, %.thread.thread ], [ %.167103, %62 ]
  %77 = load i8, ptr %.170.ph, align 1, !tbaa !12
  %.not88 = icmp eq i8 %77, 0
  br i1 %.not88, label %78, label %16, !llvm.loop !15

78:                                               ; preds = %55, %67, %76
  call void @llvm.lifetime.end.p0(i64 4, ptr nonnull %7) #5
  call void @llvm.lifetime.end.p0(i64 8, ptr nonnull %6) #5
  call void @llvm.lifetime.end.p0(i64 8, ptr nonnull %5) #5
  call void @llvm.lifetime.end.p0(i64 4, ptr nonnull %4) #5
  call void @llvm.lifetime.end.p0(i64 8, ptr nonnull %3) #5
  ret void
}